; Function Attrs: nounwind uwtable
define dso_local i32 @uv_tty_init(ptr noundef %0, ptr noundef %1, i32 noundef %2, i32 noundef %3) local_unnamed_addr #0 {
  %5 = alloca i32, align 4
  %6 = alloca [256 x i8], align 16
  call void @llvm.lifetime.start.p0(i64 256, ptr nonnull %6) #8
  %7 = tail call i32 @uv_guess_handle(i32 noundef %2)
  switch i32 %7, label %.preheader [
    i32 17, label %39
    i32 0, label %39
  ]

.preheader:                                       ; preds = %4, %10
  %8 = tail call i32 (i32, i32, ...) @fcntl(i32 noundef %2, i32 noundef 3) #8
  %9 = icmp eq i32 %8, -1
  br i1 %9, label %10, label %.critedge46

10:                                               ; preds = %.preheader
  %11 = tail call ptr @__errno_location() #9
  %12 = load i32, ptr %11, align 4, !tbaa !4
  %13 = icmp eq i32 %12, 4
  br i1 %13, label %.preheader, label %.critedge, !llvm.loop !10

.critedge:                                        ; preds = %10
  %14 = sub nsw i32 0, %12
  br label %39

.critedge46:                                      ; preds = %.preheader
  %15 = and i32 %8, 3
  %16 = icmp eq i32 %7, 14
  br i1 %16, label %17, label %.thread51

17:                                               ; preds = %.critedge46
  call void @llvm.lifetime.start.p0(i64 4, ptr nonnull %5) #8
  %18 = call i32 (i32, i64, ...) @ioctl(i32 noundef %2, i64 noundef 2147767344, ptr noundef nonnull %5) #8
  %.not59 = icmp eq i32 %18, 0
  call void @llvm.lifetime.end.p0(i64 4, ptr nonnull %5) #8
  br i1 %.not59, label %.thread, label %19

19:                                               ; preds = %17
  %20 = call i32 @ttyname_r(i32 noundef %2, ptr noundef nonnull %6, i64 noundef 256) #8
  %21 = icmp eq i32 %20, 0
  br i1 %21, label %22, label %.thread

22:                                               ; preds = %19
  %23 = or disjoint i32 %15, 256
  %24 = call i32 @uv__open_cloexec(ptr noundef nonnull %6, i32 noundef %23) #8
  %25 = icmp slt i32 %24, 0
  br i1 %25, label %.thread, label %26

26:                                               ; preds = %22
  %27 = call i32 @uv__dup2_cloexec(i32 noundef %24, i32 noundef %2) #8
  %28 = icmp slt i32 %27, 0
  %29 = icmp ne i32 %27, -22
  %or.cond3 = and i1 %28, %29
  br i1 %or.cond3, label %30, label %.thread51

30:                                               ; preds = %26
  %31 = call i32 @uv__close(i32 noundef %24) #8
  br label %39

.thread51:                                        ; preds = %.critedge46, %26
  %.037.ph = phi i32 [ %24, %26 ], [ %2, %.critedge46 ]
  call void @uv__stream_init(ptr noundef %0, ptr noundef %1, i32 noundef 14) #8
  br label %32

.thread:                                          ; preds = %17, %19, %22
  %.not42 = icmp eq i32 %15, 0
  call void @uv__stream_init(ptr noundef %0, ptr noundef %1, i32 noundef 14) #8
  br i1 %.not42, label %32, label %34

32:                                               ; preds = %.thread51, %.thread
  %.03758 = phi i32 [ %.037.ph, %.thread51 ], [ %2, %.thread ]
  %33 = call i32 @uv__nonblock_ioctl(i32 noundef %.03758, i32 noundef 1) #8
  br label %34

34:                                               ; preds = %32, %.thread
  %.03757 = phi i32 [ %.03758, %32 ], [ %2, %.thread ]
  %.03955 = phi i32 [ 0, %32 ], [ 1048576, %.thread ]
  %.not44 = icmp eq i32 %15, 1
  %35 = or disjoint i32 %.03955, 16384
  %spec.select48 = select i1 %.not44, i32 %.03955, i32 %35
  %.not45 = icmp eq i32 %15, 0
  %36 = or disjoint i32 %spec.select48, 32768
  %.2 = select i1 %.not45, i32 %35, i32 %36
  %37 = call i32 @uv__stream_open(ptr noundef %1, i32 noundef %.03757, i32 noundef %.2) #8
  %38 = getelementptr inbounds nuw i8, ptr %1, i64 308
  store i32 0, ptr %38, align 4, !tbaa !11
  br label %39

39:                                               ; preds = %4, %4, %34, %30, %.critedge
  %.0 = phi i32 [ %14, %.critedge ], [ 0, %34 ], [ %27, %30 ], [ -22, %4 ], [ -22, %4 ]
  call void @llvm.lifetime.end.p0(i64 256, ptr nonnull %6) #8
  ret i32 %.0
}